target datalayout = "e-m:e-p270:32:32-p271:32:32-p272:64:64-i64:64-i128:128-f80:128-n8:16:32:64-S128"
target triple = "x86_64-unknown-linux-gnu"

%"class.icu_75::TZDBNames" = type <{ ptr, ptr, ptr, i32, [4 x i8] }>

; Function Attrs: mustprogress nounwind uwtable
define noundef ptr @_ZNK6icu_759TZDBNames15getParseRegionsERi(ptr noundef nonnull align 8 dereferenceable(28) %this, ptr noundef nonnull align 4 dereferenceable(4) %numRegions) #0 align 2 {
entry:
  %this.addr = alloca ptr, align 8
  %numRegions.addr = alloca ptr, align 8
  store ptr %this, ptr %this.addr, align 8
  store ptr %numRegions, ptr %numRegions.addr, align 8
  %this1 = load ptr, ptr %this.addr, align 8
  %fRegions = getelementptr inbounds %"class.icu_75::TZDBNames", ptr %this1, i32 0, i32 2
  %0 = load ptr, ptr %fRegions, align 8
  %cmp = icmp eq ptr %0, null
  br i1 %cmp, label %if.then, label %if.else

if.then:                                          ; preds = %entry
  %1 = load ptr, ptr %numRegions.addr, align 8
  store i32 0, ptr %1, align 4
  br label %if.end

if.else:                                          ; preds = %entry
  %fNumRegions = getelementptr inbounds %"class.icu_75::TZDBNames", ptr %this1, i32 0, i32 3
  %2 = load i32, ptr %fNumRegions, align 8
  %3 = load ptr, ptr %numRegions.addr, align 8
  store i32 %2, ptr %3, align 4
  br label %if.end

if.end:                                           ; preds = %if.else, %if.then
  %fRegions2 = getelementptr inbounds %"class.icu_75::TZDBNames", ptr %this1, i32 0, i32 2
  %4 = load ptr, ptr %fRegions2, align 8
  ret ptr %4
}