; Function Attrs: mustprogress nofree norecurse nosync nounwind willreturn memory(argmem: readwrite) uwtable
define noundef ptr @_ZNK6icu_759TZDBNames15getParseRegionsERi(ptr nocapture noundef nonnull readonly align 8 dereferenceable(28) %this, ptr nocapture noundef nonnull writeonly align 4 dereferenceable(4) %numRegions) local_unnamed_addr #14 align 2 {
entry:
  %fRegions = getelementptr inbounds i8, ptr %this, i64 16
  %0 = load ptr, ptr %fRegions, align 8
  %cmp = icmp eq ptr %0, null
  %fNumRegions = getelementptr inbounds i8, ptr %this, i64 24
  %1 = load i32, ptr %fNumRegions, align 8
  %storemerge = select i1 %cmp, i32 0, i32 %1
  store i32 %storemerge, ptr %numRegions, align 4
  %2 = load ptr, ptr %fRegions, align 8
  ret ptr %2
}